target datalayout = "e-m:e-p270:32:32-p271:32:32-p272:64:64-i64:64-i128:128-f80:128-n8:16:32:64-S128"
target triple = "x86_64-pc-linux-gnu"

%struct.fdt_header = type { i32, i32, i32, i32, i32, i32, i32, i32, i32, i32 }
%struct.fdt_node_header = type { i32, [0 x i8] }

; Function Attrs: inlinehint nounwind uwtable
define internal i32 @fdt32_ld(ptr noundef %0) #3 {
  %2 = alloca ptr, align 8
  %3 = alloca ptr, align 8
  store ptr %0, ptr %2, align 8, !tbaa !9
  call void @llvm.lifetime.start.p0(i64 8, ptr %3) #6
  %4 = load ptr, ptr %2, align 8, !tbaa !9
  store ptr %4, ptr %3, align 8, !tbaa !13
  %5 = load ptr, ptr %3, align 8, !tbaa !13
  %6 = getelementptr inbounds i8, ptr %5, i64 0
  %7 = load i8, ptr %6, align 1, !tbaa !15
  %8 = zext i8 %7 to i32
  %9 = shl i32 %8, 24
  %10 = load ptr, ptr %3, align 8, !tbaa !13
  %11 = getelementptr inbounds i8, ptr %10, i64 1
  %12 = load i8, ptr %11, align 1, !tbaa !15
  %13 = zext i8 %12 to i32
  %14 = shl i32 %13, 16
  %15 = or i32 %9, %14
  %16 = load ptr, ptr %3, align 8, !tbaa !13
  %17 = getelementptr inbounds i8, ptr %16, i64 2
  %18 = load i8, ptr %17, align 1, !tbaa !15
  %19 = zext i8 %18 to i32
  %20 = shl i32 %19, 8
  %21 = or i32 %15, %20
  %22 = load ptr, ptr %3, align 8, !tbaa !13
  %23 = getelementptr inbounds i8, ptr %22, i64 3
  %24 = load i8, ptr %23, align 1, !tbaa !15
  %25 = zext i8 %24 to i32
  %26 = or i32 %21, %25
  call void @llvm.lifetime.end.p0(i64 8, ptr %3) #6
  ret i32 %26
}

; Function Attrs: inlinehint nounwind uwtable
define internal ptr @fdt_offset_ptr_(ptr noundef %0, i32 noundef %1) #3 {
  %3 = alloca ptr, align 8
  %4 = alloca i32, align 4
  store ptr %0, ptr %3, align 8, !tbaa !3
  store i32 %1, ptr %4, align 4, !tbaa !7
  %5 = load ptr, ptr %3, align 8, !tbaa !3
  %6 = load ptr, ptr %3, align 8, !tbaa !3
  %7 = getelementptr inbounds nuw %struct.fdt_header, ptr %6, i32 0, i32 2
  %8 = call i32 @fdt32_ld(ptr noundef %7)
  %9 = zext i32 %8 to i64
  %10 = getelementptr inbounds nuw i8, ptr %5, i64 %9
  %11 = load i32, ptr %4, align 4, !tbaa !7
  %12 = sext i32 %11 to i64
  %13 = getelementptr inbounds i8, ptr %10, i64 %12
  ret ptr %13
}

; Function Attrs: nounwind uwtable
define ptr @fdt_get_name(ptr noundef %0, i32 noundef %1, ptr noundef %2) #0 {
  %4 = alloca ptr, align 8
  %5 = alloca ptr, align 8
  %6 = alloca i32, align 4
  %7 = alloca ptr, align 8
  %8 = alloca ptr, align 8
  %9 = alloca ptr, align 8
  %10 = alloca i32, align 4
  %11 = alloca ptr, align 8
  %12 = alloca i32, align 4
  store ptr %0, ptr %5, align 8, !tbaa !3
  store i32 %1, ptr %6, align 4, !tbaa !7
  store ptr %2, ptr %7, align 8, !tbaa !9
  call void @llvm.lifetime.start.p0(i64 8, ptr %8) #6
  %13 = load ptr, ptr %5, align 8, !tbaa !3
  %14 = load i32, ptr %6, align 4, !tbaa !7
  %15 = call ptr @fdt_offset_ptr_(ptr noundef %13, i32 noundef %14)
  store ptr %15, ptr %8, align 8, !tbaa !25
  call void @llvm.lifetime.start.p0(i64 8, ptr %9) #6
  call void @llvm.lifetime.start.p0(i64 4, ptr %10) #6
  %16 = load ptr, ptr %5, align 8, !tbaa !3
  %17 = call i32 @fdt_ro_probe_(ptr noundef %16)
  store i32 %17, ptr %10, align 4, !tbaa !7
  %18 = icmp slt i32 %17, 0
  br i1 %18, label %24, label %19

19:                                               ; preds = %3
  %20 = load ptr, ptr %5, align 8, !tbaa !3
  %21 = load i32, ptr %6, align 4, !tbaa !7
  %22 = call i32 @fdt_check_node_offset_(ptr noundef %20, i32 noundef %21)
  store i32 %22, ptr %10, align 4, !tbaa !7
  %23 = icmp slt i32 %22, 0
  br i1 %23, label %24, label %25

24:                                               ; preds = %19, %3
  br label %55

25:                                               ; preds = %19
  %26 = load ptr, ptr %8, align 8, !tbaa !25
  %27 = getelementptr inbounds nuw %struct.fdt_node_header, ptr %26, i32 0, i32 1
  %28 = getelementptr inbounds [0 x i8], ptr %27, i64 0, i64 0
  store ptr %28, ptr %9, align 8, !tbaa !13
  %29 = load ptr, ptr %5, align 8, !tbaa !3
  %30 = getelementptr inbounds nuw %struct.fdt_header, ptr %29, i32 0, i32 5
  %31 = call i32 @fdt32_ld(ptr noundef %30)
  %32 = icmp ult i32 %31, 16
  br i1 %32, label %33, label %45

33:                                               ; preds = %25
  call void @llvm.lifetime.start.p0(i64 8, ptr %11) #6
  %34 = load ptr, ptr %9, align 8, !tbaa !13
  %35 = call ptr @strrchr(ptr noundef %34, i32 noundef 47) #7
  store ptr %35, ptr %11, align 8, !tbaa !13
  %36 = load ptr, ptr %11, align 8, !tbaa !13
  %37 = icmp eq ptr %36, null
  br i1 %37, label %38, label %39

38:                                               ; preds = %33
  store i32 -11, ptr %10, align 4, !tbaa !7
  store i32 2, ptr %12, align 4
  br label %42

39:                                               ; preds = %33
  %40 = load ptr, ptr %11, align 8, !tbaa !13
  %41 = getelementptr inbounds i8, ptr %40, i64 1
  store ptr %41, ptr %9, align 8, !tbaa !13
  store i32 0, ptr %12, align 4
  br label %42

42:                                               ; preds = %38, %39
  call void @llvm.lifetime.end.p0(i64 8, ptr %11) #6
  %43 = load i32, ptr %12, align 4
  switch i32 %43, label %62 [
    i32 0, label %44
    i32 2, label %55
  ]

44:                                               ; preds = %42
  br label %45

45:                                               ; preds = %44, %25
  %46 = load ptr, ptr %7, align 8, !tbaa !9
  %47 = icmp ne ptr %46, null
  br i1 %47, label %48, label %53

48:                                               ; preds = %45
  %49 = load ptr, ptr %9, align 8, !tbaa !13
  %50 = call i64 @strlen(ptr noundef %49) #7
  %51 = trunc i64 %50 to i32
  %52 = load ptr, ptr %7, align 8, !tbaa !9
  store i32 %51, ptr %52, align 4, !tbaa !7
  br label %53

53:                                               ; preds = %48, %45
  %54 = load ptr, ptr %9, align 8, !tbaa !13
  store ptr %54, ptr %4, align 8
  store i32 1, ptr %12, align 4
  br label %62

55:                                               ; preds = %42, %24
  %56 = load ptr, ptr %7, align 8, !tbaa !9
  %57 = icmp ne ptr %56, null
  br i1 %57, label %58, label %61

58:                                               ; preds = %55
  %59 = load i32, ptr %10, align 4, !tbaa !7
  %60 = load ptr, ptr %7, align 8, !tbaa !9
  store i32 %59, ptr %60, align 4, !tbaa !7
  br label %61

61:                                               ; preds = %58, %55
  store ptr null, ptr %4, align 8
  store i32 1, ptr %12, align 4
  br label %62

62:                                               ; preds = %61, %53, %42
  call void @llvm.lifetime.end.p0(i64 4, ptr %10) #6
  call void @llvm.lifetime.end.p0(i64 8, ptr %9) #6
  call void @llvm.lifetime.end.p0(i64 8, ptr %8) #6
  %63 = load ptr, ptr %4, align 8
  ret ptr %63
}