; Function Attrs: nounwind uwtable
define ptr @fdt_get_name(ptr noundef %0, i32 noundef %1, ptr noundef writeonly captures(address_is_null) %2) local_unnamed_addr #0 {
  %4 = getelementptr inbounds nuw i8, ptr %0, i64 8
  %5 = load i8, ptr %4, align 1, !tbaa !3
  %6 = zext i8 %5 to i64
  %7 = shl nuw nsw i64 %6, 24
  %8 = getelementptr inbounds nuw i8, ptr %0, i64 9
  %9 = load i8, ptr %8, align 1, !tbaa !3
  %10 = zext i8 %9 to i64
  %11 = shl nuw nsw i64 %10, 16
  %12 = or disjoint i64 %11, %7
  %13 = getelementptr inbounds nuw i8, ptr %0, i64 10
  %14 = load i8, ptr %13, align 1, !tbaa !3
  %15 = zext i8 %14 to i64
  %16 = shl nuw nsw i64 %15, 8
  %17 = or disjoint i64 %12, %16
  %18 = getelementptr inbounds nuw i8, ptr %0, i64 11
  %19 = load i8, ptr %18, align 1, !tbaa !3
  %20 = zext i8 %19 to i64
  %21 = or disjoint i64 %17, %20
  %22 = getelementptr inbounds nuw i8, ptr %0, i64 %21
  %23 = sext i32 %1 to i64
  %24 = getelementptr inbounds i8, ptr %22, i64 %23
  %25 = tail call i32 @fdt_ro_probe_(ptr noundef %0) #9
  %26 = icmp slt i32 %25, 0
  br i1 %26, label %59, label %27

27:                                               ; preds = %3
  %28 = tail call i32 @fdt_check_node_offset_(ptr noundef nonnull %0, i32 noundef %1) #9
  %29 = icmp slt i32 %28, 0
  br i1 %29, label %59, label %30

30:                                               ; preds = %27
  %31 = getelementptr inbounds nuw i8, ptr %24, i64 4
  %32 = getelementptr inbounds nuw i8, ptr %0, i64 20
  %33 = load i8, ptr %32, align 1, !tbaa !3
  %34 = zext i8 %33 to i32
  %35 = shl nuw i32 %34, 24
  %36 = getelementptr inbounds nuw i8, ptr %0, i64 21
  %37 = load i8, ptr %36, align 1, !tbaa !3
  %38 = zext i8 %37 to i32
  %39 = shl nuw nsw i32 %38, 16
  %40 = or disjoint i32 %39, %35
  %41 = getelementptr inbounds nuw i8, ptr %0, i64 22
  %42 = load i8, ptr %41, align 1, !tbaa !3
  %43 = zext i8 %42 to i32
  %44 = shl nuw nsw i32 %43, 8
  %45 = or disjoint i32 %40, %44
  %46 = getelementptr inbounds nuw i8, ptr %0, i64 23
  %47 = load i8, ptr %46, align 1, !tbaa !3
  %48 = zext i8 %47 to i32
  %49 = or disjoint i32 %45, %48
  %50 = icmp ult i32 %49, 16
  br i1 %50, label %51, label %55

51:                                               ; preds = %30
  %52 = tail call ptr @strrchr(ptr noundef nonnull dereferenceable(1) %31, i32 noundef 47) #10
  %53 = icmp eq ptr %52, null
  %54 = getelementptr inbounds nuw i8, ptr %52, i64 1
  br i1 %53, label %59, label %55

55:                                               ; preds = %51, %30
  %.020 = phi ptr [ %54, %51 ], [ %31, %30 ]
  %.not = icmp eq ptr %2, null
  br i1 %.not, label %60, label %56

56:                                               ; preds = %55
  %57 = tail call i64 @strlen(ptr noundef nonnull dereferenceable(1) %.020) #10
  %58 = trunc i64 %57 to i32
  br label %.sink.split

59:                                               ; preds = %51, %3, %27
  %.019 = phi i32 [ %25, %3 ], [ %28, %27 ], [ -11, %51 ]
  %.not28 = icmp eq ptr %2, null
  br i1 %.not28, label %60, label %.sink.split

.sink.split:                                      ; preds = %59, %56
  %.019.sink = phi i32 [ %58, %56 ], [ %.019, %59 ]
  %.018.ph = phi ptr [ %.020, %56 ], [ null, %59 ]
  store i32 %.019.sink, ptr %2, align 4, !tbaa !6
  br label %60

60:                                               ; preds = %.sink.split, %59, %55
  %.018 = phi ptr [ %.020, %55 ], [ null, %59 ], [ %.018.ph, %.sink.split ]
  ret ptr %.018
}